target datalayout = "e-m:e-p270:32:32-p271:32:32-p272:64:64-i64:64-i128:128-f80:128-n8:16:32:64-S128"
target triple = "x86_64-unknown-linux-gnu"

%class.aiMatrix4x4t = type { float, float, float, float, float, float, float, float, float, float, float, float, float, float, float, float }

; Function Attrs: mustprogress nounwind uwtable
define linkonce_odr hidden void @_ZN12aiMatrix4x4tIfEC2Ev(ptr noundef nonnull align 4 dereferenceable(64) %this) unnamed_addr #0 comdat align 2 {
entry:
  %this.addr = alloca ptr, align 8
  store ptr %this, ptr %this.addr, align 8
  %this1 = load ptr, ptr %this.addr, align 8
  %a1 = getelementptr inbounds %class.aiMatrix4x4t, ptr %this1, i32 0, i32 0
  store float 1.000000e+00, ptr %a1, align 4
  %a2 = getelementptr inbounds %class.aiMatrix4x4t, ptr %this1, i32 0, i32 1
  store float 0.000000e+00, ptr %a2, align 4
  %a3 = getelementptr inbounds %class.aiMatrix4x4t, ptr %this1, i32 0, i32 2
  store float 0.000000e+00, ptr %a3, align 4
  %a4 = getelementptr inbounds %class.aiMatrix4x4t, ptr %this1, i32 0, i32 3
  store float 0.000000e+00, ptr %a4, align 4
  %b1 = getelementptr inbounds %class.aiMatrix4x4t, ptr %this1, i32 0, i32 4
  store float 0.000000e+00, ptr %b1, align 4
  %b2 = getelementptr inbounds %class.aiMatrix4x4t, ptr %this1, i32 0, i32 5
  store float 1.000000e+00, ptr %b2, align 4
  %b3 = getelementptr inbounds %class.aiMatrix4x4t, ptr %this1, i32 0, i32 6
  store float 0.000000e+00, ptr %b3, align 4
  %b4 = getelementptr inbounds %class.aiMatrix4x4t, ptr %this1, i32 0, i32 7
  store float 0.000000e+00, ptr %b4, align 4
  %c1 = getelementptr inbounds %class.aiMatrix4x4t, ptr %this1, i32 0, i32 8
  store float 0.000000e+00, ptr %c1, align 4
  %c2 = getelementptr inbounds %class.aiMatrix4x4t, ptr %this1, i32 0, i32 9
  store float 0.000000e+00, ptr %c2, align 4
  %c3 = getelementptr inbounds %class.aiMatrix4x4t, ptr %this1, i32 0, i32 10
  store float 1.000000e+00, ptr %c3, align 4
  %c4 = getelementptr inbounds %class.aiMatrix4x4t, ptr %this1, i32 0, i32 11
  store float 0.000000e+00, ptr %c4, align 4
  %d1 = getelementptr inbounds %class.aiMatrix4x4t, ptr %this1, i32 0, i32 12
  store float 0.000000e+00, ptr %d1, align 4
  %d2 = getelementptr inbounds %class.aiMatrix4x4t, ptr %this1, i32 0, i32 13
  store float 0.000000e+00, ptr %d2, align 4
  %d3 = getelementptr inbounds %class.aiMatrix4x4t, ptr %this1, i32 0, i32 14
  store float 0.000000e+00, ptr %d3, align 4
  %d4 = getelementptr inbounds %class.aiMatrix4x4t, ptr %this1, i32 0, i32 15
  store float 1.000000e+00, ptr %d4, align 4
  ret void
}

; Function Attrs: mustprogress uwtable
define hidden void @_ZN6Assimp11ASEImporter8AddNodesERKSt6vectorIPNS_3ASE8BaseNodeESaIS4_EEP6aiNodePKc(ptr noundef nonnull align 8 dereferenceable(98) %this, ptr noundef nonnull align 8 dereferenceable(24) %nodes, ptr noundef %pcParent, ptr noundef %szName) #3 align 2 {
entry:
  %this.addr = alloca ptr, align 8
  %nodes.addr = alloca ptr, align 8
  %pcParent.addr = alloca ptr, align 8
  %szName.addr = alloca ptr, align 8
  %m = alloca %class.aiMatrix4x4t, align 4
  store ptr %this, ptr %this.addr, align 8
  store ptr %nodes, ptr %nodes.addr, align 8
  store ptr %pcParent, ptr %pcParent.addr, align 8
  store ptr %szName, ptr %szName.addr, align 8
  %this1 = load ptr, ptr %this.addr, align 8
  call void @_ZN12aiMatrix4x4tIfEC2Ev(ptr noundef nonnull align 4 dereferenceable(64) %m) #15
  %0 = load ptr, ptr %nodes.addr, align 8
  %1 = load ptr, ptr %pcParent.addr, align 8
  %2 = load ptr, ptr %szName.addr, align 8
  call void @_ZN6Assimp11ASEImporter8AddNodesERKSt6vectorIPNS_3ASE8BaseNodeESaIS4_EEP6aiNodePKcRK12aiMatrix4x4tIfE(ptr noundef nonnull align 8 dereferenceable(98) %this1, ptr noundef nonnull align 8 dereferenceable(24) %0, ptr noundef %1, ptr noundef %2, ptr noundef nonnull align 4 dereferenceable(64) %m)
  ret void
}