; Function Attrs: mustprogress uwtable
define hidden void @_ZN6Assimp11ASEImporter8AddNodesERKSt6vectorIPNS_3ASE8BaseNodeESaIS4_EEP6aiNodePKc(ptr nocapture noundef nonnull readonly align 8 dereferenceable(98) %this, ptr nocapture noundef nonnull readonly align 8 dereferenceable(24) %nodes, ptr noundef %pcParent, ptr noundef %szName) local_unnamed_addr #2 align 2 {
entry:
  %m = alloca %class.aiMatrix4x4t, align 4
  store float 1.000000e+00, ptr %m, align 4
  %a2.i = getelementptr inbounds i8, ptr %m, i64 4
  %b2.i = getelementptr inbounds i8, ptr %m, i64 20
  call void @llvm.memset.p0.i64(ptr noundef nonnull align 4 dereferenceable(16) %a2.i, i8 0, i64 16, i1 false)
  store float 1.000000e+00, ptr %b2.i, align 4
  %b3.i = getelementptr inbounds i8, ptr %m, i64 24
  %c3.i = getelementptr inbounds i8, ptr %m, i64 40
  call void @llvm.memset.p0.i64(ptr noundef nonnull align 4 dereferenceable(16) %b3.i, i8 0, i64 16, i1 false)
  store float 1.000000e+00, ptr %c3.i, align 4
  %c4.i = getelementptr inbounds i8, ptr %m, i64 44
  %d4.i = getelementptr inbounds i8, ptr %m, i64 60
  call void @llvm.memset.p0.i64(ptr noundef nonnull align 4 dereferenceable(16) %c4.i, i8 0, i64 16, i1 false)
  store float 1.000000e+00, ptr %d4.i, align 4
  call void @_ZN6Assimp11ASEImporter8AddNodesERKSt6vectorIPNS_3ASE8BaseNodeESaIS4_EEP6aiNodePKcRK12aiMatrix4x4tIfE(ptr noundef nonnull align 8 dereferenceable(98) %this, ptr noundef nonnull align 8 dereferenceable(24) %nodes, ptr noundef %pcParent, ptr noundef %szName, ptr noundef nonnull align 4 dereferenceable(64) %m)
  ret void
}